target datalayout = "e-m:e-p270:32:32-p271:32:32-p272:64:64-i64:64-i128:128-f80:128-n8:16:32:64-S128"
target triple = "x86_64-pc-linux-gnu"

@rb_cRange = dso_local global i64 0, align 8

; Function Attrs: nounwind sspstrong uwtable
define internal i64 @range_eql(i64 noundef %0, i64 noundef %1) #0 {
  %3 = alloca i64, align 8
  %4 = alloca i64, align 8
  %5 = alloca i64, align 8
  store i64 %0, ptr %4, align 8, !tbaa !7
  store i64 %1, ptr %5, align 8, !tbaa !7
  %6 = load i64, ptr %4, align 8, !tbaa !7
  %7 = load i64, ptr %5, align 8, !tbaa !7
  %8 = icmp eq i64 %6, %7
  br i1 %8, label %9, label %10

9:                                                ; preds = %2
  store i64 20, ptr %3, align 8
  br label %21

10:                                               ; preds = %2
  %11 = load i64, ptr %5, align 8, !tbaa !7
  %12 = load i64, ptr @rb_cRange, align 8, !tbaa !7
  %13 = call i64 @rb_obj_is_kind_of(i64 noundef %11, i64 noundef %12)
  %14 = icmp ne i64 %13, 0
  br i1 %14, label %16, label %15

15:                                               ; preds = %10
  store i64 0, ptr %3, align 8
  br label %21

16:                                               ; preds = %10
  %17 = load i64, ptr %4, align 8, !tbaa !7
  %18 = load i64, ptr %5, align 8, !tbaa !7
  %19 = load i64, ptr %5, align 8, !tbaa !7
  %20 = call i64 @rb_exec_recursive_paired(ptr noundef @recursive_eql, i64 noundef %17, i64 noundef %18, i64 noundef %19)
  store i64 %20, ptr %3, align 8
  br label %21

21:                                               ; preds = %16, %15, %9
  %22 = load i64, ptr %3, align 8
  ret i64 %22
}